target datalayout = "e-m:e-p270:32:32-p271:32:32-p272:64:64-i64:64-i128:128-f80:128-n8:16:32:64-S128"
target triple = "x86_64-pc-linux-gnu"

%class.ModelWriter = type <{ %"class.ncnn::Net", ptr, ptr, i8, [3 x i8], i32, i32, i32, i32, [4 x i8] }>
%"class.ncnn::Net" = type { ptr, %"class.ncnn::Option", ptr }
%"class.ncnn::Option" = type { i8, i32, ptr, ptr, i32, i8, i8, i8, i8, i8, i8, i8, i8, i8, i8, i8, i8, i8, i8, i8, i8, i8, i8, i8, i8, i32, i8, i8, i8, i8, i8, i8, i8, i8, i8, i8, i8, i8 }
%"class.ncnn::Layer" = type { ptr, i8, i8, i8, i8, i8, i8, i8, i8, i8, i8, i8, i8, i8, i8, i8, i8, i8, i8, i8, i8, i32, ptr, i32, %"class.std::__cxx11::basic_string", %"class.std::__cxx11::basic_string", %"class.std::vector", %"class.std::vector", %"class.std::vector.3", %"class.std::vector.3" }
%"class.std::__cxx11::basic_string" = type { %"struct.std::__cxx11::basic_string<char>::_Alloc_hider", i64, %union.anon }
%"struct.std::__cxx11::basic_string<char>::_Alloc_hider" = type { ptr }
%union.anon = type { i64, [8 x i8] }
%"class.std::vector" = type { %"struct.std::_Vector_base" }
%"struct.std::_Vector_base" = type { %"struct.std::_Vector_base<int, std::allocator<int>>::_Vector_impl" }
%"struct.std::_Vector_base<int, std::allocator<int>>::_Vector_impl" = type { %"struct.std::_Vector_base<int, std::allocator<int>>::_Vector_impl_data" }
%"struct.std::_Vector_base<int, std::allocator<int>>::_Vector_impl_data" = type { ptr, ptr, ptr }
%"class.std::vector.3" = type { %"struct.std::_Vector_base.4" }
%"struct.std::_Vector_base.4" = type { %"struct.std::_Vector_base<ncnn::Mat, std::allocator<ncnn::Mat>>::_Vector_impl" }
%"struct.std::_Vector_base<ncnn::Mat, std::allocator<ncnn::Mat>>::_Vector_impl" = type { %"struct.std::_Vector_base<ncnn::Mat, std::allocator<ncnn::Mat>>::_Vector_impl_data" }
%"struct.std::_Vector_base<ncnn::Mat, std::allocator<ncnn::Mat>>::_Vector_impl_data" = type { ptr, ptr, ptr }
%"class.ncnn::ParamDict" = type { ptr, ptr }
%"class.ncnn::Mat" = type { ptr, ptr, i64, i32, ptr, i32, i32, i32, i32, i32, i64 }
%"struct.std::_Vector_base.14" = type { %"struct.std::_Vector_base<ncnn::Layer *, std::allocator<ncnn::Layer *>>::_Vector_impl" }
%"struct.std::_Vector_base<ncnn::Layer *, std::allocator<ncnn::Layer *>>::_Vector_impl" = type { %"struct.std::_Vector_base<ncnn::Layer *, std::allocator<ncnn::Layer *>>::_Vector_impl_data" }
%"struct.std::_Vector_base<ncnn::Layer *, std::allocator<ncnn::Layer *>>::_Vector_impl_data" = type { ptr, ptr, ptr }
%"class.ncnn::PReLU" = type { %"class.ncnn::Layer", i32, %"class.ncnn::Mat" }
%"class.ncnn::ReLU" = type <{ %"class.ncnn::Layer", float, [4 x i8] }>

@stderr = external global ptr, align 8
@.str.127 = private unnamed_addr constant [6 x i8] c"PReLU\00", align 1
@.str.136 = private unnamed_addr constant [5 x i8] c"ReLU\00", align 1
@.str.196 = private unnamed_addr constant [34 x i8] c"replace_prelu_with_leaky_relu %s\0A\00", align 1

; Function Attrs: mustprogress nounwind uwtable
define linkonce_odr dso_local noundef i64 @_ZNSt11char_traitsIcE6lengthEPKc(ptr noundef %0) #8 comdat align 2 {
  %2 = alloca ptr, align 8
  store ptr %0, ptr %2, align 8, !tbaa !10
  %3 = load ptr, ptr %2, align 8, !tbaa !10
  %4 = call i64 @strlen(ptr noundef %3) #20
  ret i64 %4
}

; Function Attrs: mustprogress nounwind uwtable
define available_externally noundef i64 @_ZNKSt7__cxx1112basic_stringIcSt11char_traitsIcESaIcEE4sizeEv(ptr noundef nonnull align 8 dereferenceable(32) %0) #8 align 2 {
  %2 = alloca ptr, align 8
  store ptr %0, ptr %2, align 8, !tbaa !98
  %3 = load ptr, ptr %2, align 8
  %4 = getelementptr inbounds nuw %"class.std::__cxx11::basic_string", ptr %3, i32 0, i32 1
  %5 = load i64, ptr %4, align 8, !tbaa !1087
  ret i64 %5
}

; Function Attrs: mustprogress uwtable
define available_externally noundef nonnull align 8 dereferenceable(32) ptr @_ZNSt7__cxx1112basic_stringIcSt11char_traitsIcESaIcEE6assignERKS4_(ptr noundef nonnull align 8 dereferenceable(32) %0, ptr noundef nonnull align 8 dereferenceable(32) %1) #3 align 2 {
  %3 = alloca ptr, align 8
  %4 = alloca ptr, align 8
  store ptr %0, ptr %3, align 8, !tbaa !98
  store ptr %1, ptr %4, align 8, !tbaa !98
  %5 = load ptr, ptr %3, align 8
  %6 = load ptr, ptr %4, align 8, !tbaa !98
  call void @_ZNSt7__cxx1112basic_stringIcSt11char_traitsIcESaIcEE9_M_assignERKS4_(ptr noundef nonnull align 8 dereferenceable(32) %5, ptr noundef nonnull align 8 dereferenceable(32) %6)
  ret ptr %5
}

; Function Attrs: mustprogress uwtable
define available_externally noundef nonnull align 8 dereferenceable(32) ptr @_ZNSt7__cxx1112basic_stringIcSt11char_traitsIcESaIcEE6assignEPKc(ptr noundef nonnull align 8 dereferenceable(32) %0, ptr noundef %1) #3 align 2 {
  %3 = alloca ptr, align 8
  %4 = alloca ptr, align 8
  store ptr %0, ptr %3, align 8, !tbaa !98
  store ptr %1, ptr %4, align 8, !tbaa !10
  %5 = load ptr, ptr %3, align 8
  %6 = call noundef i64 @_ZNKSt7__cxx1112basic_stringIcSt11char_traitsIcESaIcEE4sizeEv(ptr noundef nonnull align 8 dereferenceable(32) %5) #20
  %7 = load ptr, ptr %4, align 8, !tbaa !10
  %8 = load ptr, ptr %4, align 8, !tbaa !10
  %9 = call noundef i64 @_ZNSt11char_traitsIcE6lengthEPKc(ptr noundef %8)
  %10 = call noundef nonnull align 8 dereferenceable(32) ptr @_ZNSt7__cxx1112basic_stringIcSt11char_traitsIcESaIcEE10_M_replaceEmmPKcm(ptr noundef nonnull align 8 dereferenceable(32) %5, i64 noundef 0, i64 noundef %6, ptr noundef %7, i64 noundef %9)
  ret ptr %10
}

; Function Attrs: noinline noreturn nounwind uwtable
define linkonce_odr hidden void @__clang_call_terminate(ptr noundef %0) #11 comdat {
  %2 = call ptr @__cxa_begin_catch(ptr %0) #20
  call void @_ZSt9terminatev() #23
  unreachable
}

; Function Attrs: mustprogress nounwind uwtable
define available_externally noundef ptr @_ZNKSt7__cxx1112basic_stringIcSt11char_traitsIcESaIcEE7_M_dataEv(ptr noundef nonnull align 8 dereferenceable(32) %0) #8 align 2 {
  %2 = alloca ptr, align 8
  store ptr %0, ptr %2, align 8, !tbaa !98
  %3 = load ptr, ptr %2, align 8
  %4 = getelementptr inbounds nuw %"class.std::__cxx11::basic_string", ptr %3, i32 0, i32 0
  %5 = getelementptr inbounds nuw %"struct.std::__cxx11::basic_string<char>::_Alloc_hider", ptr %4, i32 0, i32 0
  %6 = load ptr, ptr %5, align 8, !tbaa !124
  ret ptr %6
}

; Function Attrs: inlinehint mustprogress nounwind uwtable
define linkonce_odr dso_local noundef zeroext i1 @_ZSteqIcSt11char_traitsIcESaIcEEbRKNSt7__cxx1112basic_stringIT_T0_T1_EEPKS5_(ptr noundef nonnull align 8 dereferenceable(32) %0, ptr noundef %1) #1 comdat {
  %3 = alloca ptr, align 8
  %4 = alloca ptr, align 8
  store ptr %0, ptr %3, align 8, !tbaa !98
  store ptr %1, ptr %4, align 8, !tbaa !10
  %5 = load ptr, ptr %3, align 8, !tbaa !98
  %6 = load ptr, ptr %4, align 8, !tbaa !10
  %7 = call noundef i32 @_ZNKSt7__cxx1112basic_stringIcSt11char_traitsIcESaIcEE7compareEPKc(ptr noundef nonnull align 8 dereferenceable(32) %5, ptr noundef %6) #20
  %8 = icmp eq i32 %7, 0
  ret i1 %8
}

; Function Attrs: alwaysinline mustprogress nounwind uwtable
define linkonce_odr dso_local noundef nonnull align 4 dereferenceable(4) ptr @_ZN4ncnn3MatixEm(ptr noundef nonnull align 8 dereferenceable(72) %0, i64 noundef %1) #9 comdat align 2 {
  %3 = alloca ptr, align 8
  %4 = alloca i64, align 8
  store ptr %0, ptr %3, align 8, !tbaa !100
  store i64 %1, ptr %4, align 8, !tbaa !39
  %5 = load ptr, ptr %3, align 8
  %6 = getelementptr inbounds nuw %"class.ncnn::Mat", ptr %5, i32 0, i32 0
  %7 = load ptr, ptr %6, align 8, !tbaa !101
  %8 = load i64, ptr %4, align 8, !tbaa !39
  %9 = getelementptr inbounds nuw float, ptr %7, i64 %8
  ret ptr %9
}

; Function Attrs: mustprogress uwtable
define available_externally noundef nonnull align 8 dereferenceable(32) ptr @_ZNSt7__cxx1112basic_stringIcSt11char_traitsIcESaIcEEaSERKS4_(ptr noundef nonnull align 8 dereferenceable(32) %0, ptr noundef nonnull align 8 dereferenceable(32) %1) #3 align 2 {
  %3 = alloca ptr, align 8
  %4 = alloca ptr, align 8
  store ptr %0, ptr %3, align 8, !tbaa !98
  store ptr %1, ptr %4, align 8, !tbaa !98
  %5 = load ptr, ptr %3, align 8
  %6 = load ptr, ptr %4, align 8, !tbaa !98
  %7 = call noundef nonnull align 8 dereferenceable(32) ptr @_ZNSt7__cxx1112basic_stringIcSt11char_traitsIcESaIcEE6assignERKS4_(ptr noundef nonnull align 8 dereferenceable(32) %5, ptr noundef nonnull align 8 dereferenceable(32) %6)
  ret ptr %7
}

; Function Attrs: mustprogress uwtable
define available_externally noundef nonnull align 8 dereferenceable(32) ptr @_ZNSt7__cxx1112basic_stringIcSt11char_traitsIcESaIcEEaSEPKc(ptr noundef nonnull align 8 dereferenceable(32) %0, ptr noundef %1) #3 align 2 {
  %3 = alloca ptr, align 8
  %4 = alloca ptr, align 8
  store ptr %0, ptr %3, align 8, !tbaa !98
  store ptr %1, ptr %4, align 8, !tbaa !10
  %5 = load ptr, ptr %3, align 8
  %6 = load ptr, ptr %4, align 8, !tbaa !10
  %7 = call noundef nonnull align 8 dereferenceable(32) ptr @_ZNSt7__cxx1112basic_stringIcSt11char_traitsIcESaIcEE6assignEPKc(ptr noundef nonnull align 8 dereferenceable(32) %5, ptr noundef %6)
  ret ptr %7
}

; Function Attrs: mustprogress nounwind uwtable
define available_externally noundef ptr @_ZNKSt7__cxx1112basic_stringIcSt11char_traitsIcESaIcEE5c_strEv(ptr noundef nonnull align 8 dereferenceable(32) %0) #8 align 2 personality ptr @__gxx_personality_v0 {
  %2 = alloca ptr, align 8
  store ptr %0, ptr %2, align 8, !tbaa !98
  %3 = load ptr, ptr %2, align 8
  %4 = invoke noundef ptr @_ZNKSt7__cxx1112basic_stringIcSt11char_traitsIcESaIcEE7_M_dataEv(ptr noundef nonnull align 8 dereferenceable(32) %3)
          to label %5 unwind label %6

5:                                                ; preds = %1
  ret ptr %4

6:                                                ; preds = %1
  %7 = landingpad { ptr, i32 }
          catch ptr null
  %8 = extractvalue { ptr, i32 } %7, 0
  call void @__clang_call_terminate(ptr %8) #23
  unreachable
}

; Function Attrs: inlinehint mustprogress nounwind uwtable
define linkonce_odr dso_local noundef zeroext i1 @_ZStneIcSt11char_traitsIcESaIcEEbRKNSt7__cxx1112basic_stringIT_T0_T1_EEPKS5_(ptr noundef nonnull align 8 dereferenceable(32) %0, ptr noundef %1) #1 comdat {
  %3 = alloca ptr, align 8
  %4 = alloca ptr, align 8
  store ptr %0, ptr %3, align 8, !tbaa !98
  store ptr %1, ptr %4, align 8, !tbaa !10
  %5 = load ptr, ptr %3, align 8, !tbaa !98
  %6 = load ptr, ptr %4, align 8, !tbaa !10
  %7 = call noundef zeroext i1 @_ZSteqIcSt11char_traitsIcESaIcEEbRKNSt7__cxx1112basic_stringIT_T0_T1_EEPKS5_(ptr noundef nonnull align 8 dereferenceable(32) %5, ptr noundef %6)
  %8 = xor i1 %7, true
  ret i1 %8
}

; Function Attrs: mustprogress nounwind uwtable
define linkonce_odr dso_local noundef nonnull align 8 dereferenceable(8) ptr @_ZNSt6vectorIPN4ncnn5LayerESaIS2_EEixEm(ptr noundef nonnull align 8 dereferenceable(24) %0, i64 noundef %1) #8 comdat align 2 {
  %3 = alloca ptr, align 8
  %4 = alloca i64, align 8
  store ptr %0, ptr %3, align 8, !tbaa !34
  store i64 %1, ptr %4, align 8, !tbaa !39
  %5 = load ptr, ptr %3, align 8
  %6 = getelementptr inbounds nuw %"struct.std::_Vector_base.14", ptr %5, i32 0, i32 0
  %7 = getelementptr inbounds nuw %"struct.std::_Vector_base<ncnn::Layer *, std::allocator<ncnn::Layer *>>::_Vector_impl_data", ptr %6, i32 0, i32 0
  %8 = load ptr, ptr %7, align 8, !tbaa !94
  %9 = load i64, ptr %4, align 8, !tbaa !39
  %10 = getelementptr inbounds nuw ptr, ptr %8, i64 %9
  ret ptr %10
}

; Function Attrs: mustprogress nounwind uwtable
define linkonce_odr dso_local noundef i64 @_ZNKSt6vectorIPN4ncnn5LayerESaIS2_EE4sizeEv(ptr noundef nonnull align 8 dereferenceable(24) %0) #8 comdat align 2 {
  %2 = alloca ptr, align 8
  store ptr %0, ptr %2, align 8, !tbaa !34
  %3 = load ptr, ptr %2, align 8
  %4 = getelementptr inbounds nuw %"struct.std::_Vector_base.14", ptr %3, i32 0, i32 0
  %5 = getelementptr inbounds nuw %"struct.std::_Vector_base<ncnn::Layer *, std::allocator<ncnn::Layer *>>::_Vector_impl_data", ptr %4, i32 0, i32 1
  %6 = load ptr, ptr %5, align 8, !tbaa !90
  %7 = getelementptr inbounds nuw %"struct.std::_Vector_base.14", ptr %3, i32 0, i32 0
  %8 = getelementptr inbounds nuw %"struct.std::_Vector_base<ncnn::Layer *, std::allocator<ncnn::Layer *>>::_Vector_impl_data", ptr %7, i32 0, i32 0
  %9 = load ptr, ptr %8, align 8, !tbaa !94
  %10 = ptrtoint ptr %6 to i64
  %11 = ptrtoint ptr %9 to i64
  %12 = sub i64 %10, %11
  %13 = sdiv exact i64 %12, 8
  ret i64 %13
}

; Function Attrs: mustprogress uwtable
define dso_local noundef i32 @_ZN11NetOptimize29replace_prelu_with_leaky_reluEv(ptr noundef nonnull align 8 dereferenceable(116) %0) #3 align 2 personality ptr @__gxx_personality_v0 {
  %2 = alloca ptr, align 8
  %3 = alloca i64, align 8
  %4 = alloca i64, align 8
  %5 = alloca i32, align 4
  %6 = alloca ptr, align 8
  %7 = alloca ptr, align 8
  %8 = alloca %"class.ncnn::ParamDict", align 8
  %9 = alloca ptr, align 8
  %10 = alloca i32, align 4
  store ptr %0, ptr %2, align 8, !tbaa !1109
  %11 = load ptr, ptr %2, align 8
  call void @llvm.lifetime.start.p0(i64 8, ptr %3) #20
  %12 = getelementptr inbounds nuw %class.ModelWriter, ptr %11, i32 0, i32 2
  %13 = load ptr, ptr %12, align 8, !tbaa !53
  %14 = call noundef i64 @_ZNKSt6vectorIPN4ncnn5LayerESaIS2_EE4sizeEv(ptr noundef nonnull align 8 dereferenceable(24) %13) #20
  store i64 %14, ptr %3, align 8, !tbaa !39
  call void @llvm.lifetime.start.p0(i64 8, ptr %4) #20
  store i64 0, ptr %4, align 8, !tbaa !39
  br label %15

15:                                               ; preds = %92, %1
  %16 = load i64, ptr %4, align 8, !tbaa !39
  %17 = load i64, ptr %3, align 8, !tbaa !39
  %18 = icmp ult i64 %16, %17
  br i1 %18, label %20, label %19

19:                                               ; preds = %15
  store i32 2, ptr %5, align 4
  call void @llvm.lifetime.end.p0(i64 8, ptr %4) #20
  br label %99

20:                                               ; preds = %15
  %21 = getelementptr inbounds nuw %class.ModelWriter, ptr %11, i32 0, i32 2
  %22 = load ptr, ptr %21, align 8, !tbaa !53
  %23 = load i64, ptr %4, align 8, !tbaa !39
  %24 = call noundef nonnull align 8 dereferenceable(8) ptr @_ZNSt6vectorIPN4ncnn5LayerESaIS2_EEixEm(ptr noundef nonnull align 8 dereferenceable(24) %22, i64 noundef %23) #20
  %25 = load ptr, ptr %24, align 8, !tbaa !12
  %26 = getelementptr inbounds nuw %"class.ncnn::Layer", ptr %25, i32 0, i32 24
  %27 = call noundef zeroext i1 @_ZStneIcSt11char_traitsIcESaIcEEbRKNSt7__cxx1112basic_stringIT_T0_T1_EEPKS5_(ptr noundef nonnull align 8 dereferenceable(32) %26, ptr noundef @.str.127)
  br i1 %27, label %28, label %29

28:                                               ; preds = %20
  br label %92

29:                                               ; preds = %20
  call void @llvm.lifetime.start.p0(i64 8, ptr %6) #20
  %30 = getelementptr inbounds nuw %class.ModelWriter, ptr %11, i32 0, i32 2
  %31 = load ptr, ptr %30, align 8, !tbaa !53
  %32 = load i64, ptr %4, align 8, !tbaa !39
  %33 = call noundef nonnull align 8 dereferenceable(8) ptr @_ZNSt6vectorIPN4ncnn5LayerESaIS2_EEixEm(ptr noundef nonnull align 8 dereferenceable(24) %31, i64 noundef %32) #20
  %34 = load ptr, ptr %33, align 8, !tbaa !12
  store ptr %34, ptr %6, align 8, !tbaa !891
  %35 = load ptr, ptr %6, align 8, !tbaa !891
  %36 = getelementptr inbounds nuw %"class.ncnn::PReLU", ptr %35, i32 0, i32 1
  %37 = load i32, ptr %36, align 8, !tbaa !893
  %38 = icmp ne i32 %37, 1
  br i1 %38, label %39, label %40

39:                                               ; preds = %29
  store i32 4, ptr %5, align 4
  br label %89

40:                                               ; preds = %29
  %41 = load ptr, ptr @stderr, align 8, !tbaa !14
  %42 = load ptr, ptr %6, align 8, !tbaa !891
  %43 = getelementptr inbounds nuw %"class.ncnn::Layer", ptr %42, i32 0, i32 25
  %44 = call noundef ptr @_ZNKSt7__cxx1112basic_stringIcSt11char_traitsIcESaIcEE5c_strEv(ptr noundef nonnull align 8 dereferenceable(32) %43) #20
  %45 = call i32 (ptr, ptr, ...) @fprintf(ptr noundef %41, ptr noundef @.str.196, ptr noundef %44) #20
  call void @llvm.lifetime.start.p0(i64 8, ptr %7) #20
  %46 = call noundef ptr @_ZN4ncnn16create_layer_cpuEPKc(ptr noundef @.str.136)
  store ptr %46, ptr %7, align 8, !tbaa !932
  %47 = load ptr, ptr %7, align 8, !tbaa !932
  %48 = getelementptr inbounds nuw %"class.ncnn::Layer", ptr %47, i32 0, i32 24
  %49 = call noundef nonnull align 8 dereferenceable(32) ptr @_ZNSt7__cxx1112basic_stringIcSt11char_traitsIcESaIcEEaSEPKc(ptr noundef nonnull align 8 dereferenceable(32) %48, ptr noundef @.str.136)
  %50 = load ptr, ptr %6, align 8, !tbaa !891
  %51 = getelementptr inbounds nuw %"class.ncnn::Layer", ptr %50, i32 0, i32 25
  %52 = load ptr, ptr %7, align 8, !tbaa !932
  %53 = getelementptr inbounds nuw %"class.ncnn::Layer", ptr %52, i32 0, i32 25
  %54 = call noundef nonnull align 8 dereferenceable(32) ptr @_ZNSt7__cxx1112basic_stringIcSt11char_traitsIcESaIcEEaSERKS4_(ptr noundef nonnull align 8 dereferenceable(32) %53, ptr noundef nonnull align 8 dereferenceable(32) %51)
  %55 = load ptr, ptr %6, align 8, !tbaa !891
  %56 = getelementptr inbounds nuw %"class.ncnn::Layer", ptr %55, i32 0, i32 26
  %57 = load ptr, ptr %7, align 8, !tbaa !932
  %58 = getelementptr inbounds nuw %"class.ncnn::Layer", ptr %57, i32 0, i32 26
  %59 = call noundef nonnull align 8 dereferenceable(24) ptr @_ZNSt6vectorIiSaIiEEaSERKS1_(ptr noundef nonnull align 8 dereferenceable(24) %58, ptr noundef nonnull align 8 dereferenceable(24) %56)
  %60 = load ptr, ptr %6, align 8, !tbaa !891
  %61 = getelementptr inbounds nuw %"class.ncnn::Layer", ptr %60, i32 0, i32 27
  %62 = load ptr, ptr %7, align 8, !tbaa !932
  %63 = getelementptr inbounds nuw %"class.ncnn::Layer", ptr %62, i32 0, i32 27
  %64 = call noundef nonnull align 8 dereferenceable(24) ptr @_ZNSt6vectorIiSaIiEEaSERKS1_(ptr noundef nonnull align 8 dereferenceable(24) %63, ptr noundef nonnull align 8 dereferenceable(24) %61)
  call void @llvm.lifetime.start.p0(i64 16, ptr %8) #20
  call void @_ZN4ncnn9ParamDictC1Ev(ptr noundef nonnull align 8 dereferenceable(16) %8)
  %65 = load ptr, ptr %7, align 8, !tbaa !932
  %66 = load ptr, ptr %65, align 8, !tbaa !29
  %67 = getelementptr inbounds ptr, ptr %66, i64 2
  %68 = load ptr, ptr %67, align 8
  %69 = invoke noundef i32 %68(ptr noundef nonnull align 8 dereferenceable(212) %65, ptr noundef nonnull align 8 dereferenceable(16) %8)
          to label %70 unwind label %95

70:                                               ; preds = %40
  %71 = load ptr, ptr %6, align 8, !tbaa !891
  %72 = getelementptr inbounds nuw %"class.ncnn::PReLU", ptr %71, i32 0, i32 2
  %73 = call noundef nonnull align 4 dereferenceable(4) ptr @_ZN4ncnn3MatixEm(ptr noundef nonnull align 8 dereferenceable(72) %72, i64 noundef 0)
  %74 = load float, ptr %73, align 4, !tbaa !115
  %75 = load ptr, ptr %7, align 8, !tbaa !932
  %76 = getelementptr inbounds nuw %"class.ncnn::ReLU", ptr %75, i32 0, i32 1
  store float %74, ptr %76, align 8, !tbaa !934
  %77 = load ptr, ptr %7, align 8, !tbaa !932
  %78 = getelementptr inbounds nuw %class.ModelWriter, ptr %11, i32 0, i32 2
  %79 = load ptr, ptr %78, align 8, !tbaa !53
  %80 = load i64, ptr %4, align 8, !tbaa !39
  %81 = call noundef nonnull align 8 dereferenceable(8) ptr @_ZNSt6vectorIPN4ncnn5LayerESaIS2_EEixEm(ptr noundef nonnull align 8 dereferenceable(24) %79, i64 noundef %80) #20
  store ptr %77, ptr %81, align 8, !tbaa !12
  %82 = load ptr, ptr %6, align 8, !tbaa !891
  %83 = icmp eq ptr %82, null
  br i1 %83, label %88, label %84

84:                                               ; preds = %70
  %85 = load ptr, ptr %82, align 8, !tbaa !29
  %86 = getelementptr inbounds ptr, ptr %85, i64 1
  %87 = load ptr, ptr %86, align 8
  call void %87(ptr noundef nonnull align 8 dereferenceable(288) %82) #20
  br label %88

88:                                               ; preds = %84, %70
  call void @_ZN4ncnn9ParamDictD1Ev(ptr noundef nonnull align 8 dereferenceable(16) %8) #20
  call void @llvm.lifetime.end.p0(i64 16, ptr %8) #20
  call void @llvm.lifetime.end.p0(i64 8, ptr %7) #20
  store i32 0, ptr %5, align 4
  br label %89

89:                                               ; preds = %88, %39
  call void @llvm.lifetime.end.p0(i64 8, ptr %6) #20
  %90 = load i32, ptr %5, align 4
  switch i32 %90, label %105 [
    i32 0, label %91
    i32 4, label %92
  ]

91:                                               ; preds = %89
  br label %92

92:                                               ; preds = %91, %89, %28
  %93 = load i64, ptr %4, align 8, !tbaa !39
  %94 = add i64 %93, 1
  store i64 %94, ptr %4, align 8, !tbaa !39
  br label %15, !llvm.loop !1264

95:                                               ; preds = %40
  %96 = landingpad { ptr, i32 }
          cleanup
  %97 = extractvalue { ptr, i32 } %96, 0
  store ptr %97, ptr %9, align 8
  %98 = extractvalue { ptr, i32 } %96, 1
  store i32 %98, ptr %10, align 4
  call void @_ZN4ncnn9ParamDictD1Ev(ptr noundef nonnull align 8 dereferenceable(16) %8) #20
  call void @llvm.lifetime.end.p0(i64 16, ptr %8) #20
  call void @llvm.lifetime.end.p0(i64 8, ptr %7) #20
  call void @llvm.lifetime.end.p0(i64 8, ptr %6) #20
  call void @llvm.lifetime.end.p0(i64 8, ptr %4) #20
  call void @llvm.lifetime.end.p0(i64 8, ptr %3) #20
  br label %100

99:                                               ; preds = %19
  store i32 1, ptr %5, align 4
  call void @llvm.lifetime.end.p0(i64 8, ptr %3) #20
  ret i32 0

100:                                              ; preds = %95
  %101 = load ptr, ptr %9, align 8
  %102 = load i32, ptr %10, align 4
  %103 = insertvalue { ptr, i32 } poison, ptr %101, 0
  %104 = insertvalue { ptr, i32 } %103, i32 %102, 1
  resume { ptr, i32 } %104

105:                                              ; preds = %89
  unreachable
}