; Function Attrs: mustprogress uwtable
define dso_local noundef i32 @_ZN11NetOptimize29replace_prelu_with_leaky_reluEv(ptr noundef nonnull readonly align 8 captures(none) dereferenceable(116) %0) local_unnamed_addr #3 align 2 personality ptr @__gxx_personality_v0 {
  %2 = alloca %"class.ncnn::ParamDict", align 8
  %3 = getelementptr inbounds nuw i8, ptr %0, i64 88
  %4 = load ptr, ptr %3, align 8, !tbaa !39
  %5 = getelementptr inbounds nuw i8, ptr %4, i64 8
  %6 = load ptr, ptr %5, align 8, !tbaa !40
  %7 = load ptr, ptr %4, align 8, !tbaa !44
  %.not25 = icmp eq ptr %6, %7
  br i1 %.not25, label %._crit_edge, label %.lr.ph.preheader

.lr.ph.preheader:                                 ; preds = %1
  %8 = ptrtoint ptr %6 to i64
  %9 = ptrtoint ptr %7 to i64
  %10 = sub i64 %8, %9
  %11 = ashr exact i64 %10, 3
  %umax = tail call i64 @llvm.umax.i64(i64 %11, i64 1)
  br label %.lr.ph

._crit_edge:                                      ; preds = %57, %1
  ret i32 0

.lr.ph:                                           ; preds = %.lr.ph.preheader, %57
  %.024 = phi i64 [ %58, %57 ], [ 0, %.lr.ph.preheader ]
  %12 = load ptr, ptr %3, align 8, !tbaa !39
  %13 = load ptr, ptr %12, align 8, !tbaa !44
  %14 = getelementptr inbounds nuw ptr, ptr %13, i64 %.024
  %15 = load ptr, ptr %14, align 8, !tbaa !50
  %16 = getelementptr inbounds nuw i8, ptr %15, i64 48
  %17 = call noundef i32 @_ZNKSt7__cxx1112basic_stringIcSt11char_traitsIcESaIcEE7compareEPKc(ptr noundef nonnull align 8 dereferenceable(32) %16, ptr noundef nonnull @.str.127) #25
  %.not23 = icmp eq i32 %17, 0
  br i1 %.not23, label %18, label %57

18:                                               ; preds = %.lr.ph
  %19 = load ptr, ptr %3, align 8, !tbaa !39
  %20 = load ptr, ptr %19, align 8, !tbaa !44
  %21 = getelementptr inbounds nuw ptr, ptr %20, i64 %.024
  %22 = load ptr, ptr %21, align 8, !tbaa !50
  %23 = getelementptr inbounds nuw i8, ptr %22, i64 208
  %24 = load i32, ptr %23, align 8, !tbaa !663
  %.not = icmp eq i32 %24, 1
  br i1 %.not, label %25, label %57

25:                                               ; preds = %18
  %26 = load ptr, ptr @stderr, align 8, !tbaa !5
  %27 = getelementptr inbounds nuw i8, ptr %22, i64 80
  %28 = load ptr, ptr %27, align 8, !tbaa !52
  %29 = call i32 (ptr, ptr, ...) @fprintf(ptr noundef %26, ptr noundef nonnull @.str.196, ptr noundef %28) #27
  %30 = call noundef ptr @_ZN4ncnn16create_layer_cpuEPKc(ptr noundef nonnull @.str.136)
  %31 = getelementptr inbounds nuw i8, ptr %30, i64 48
  %32 = getelementptr inbounds nuw i8, ptr %30, i64 56
  %33 = load i64, ptr %32, align 8, !tbaa !150
  %34 = call noundef nonnull align 8 dereferenceable(32) ptr @_ZNSt7__cxx1112basic_stringIcSt11char_traitsIcESaIcEE10_M_replaceEmmPKcm(ptr noundef nonnull align 8 dereferenceable(32) %31, i64 noundef 0, i64 noundef %33, ptr noundef nonnull @.str.136, i64 noundef 4)
  %35 = getelementptr inbounds nuw i8, ptr %30, i64 80
  call void @_ZNSt7__cxx1112basic_stringIcSt11char_traitsIcESaIcEE9_M_assignERKS4_(ptr noundef nonnull align 8 dereferenceable(32) %35, ptr noundef nonnull align 8 dereferenceable(32) %27)
  %36 = getelementptr inbounds nuw i8, ptr %22, i64 112
  %37 = getelementptr inbounds nuw i8, ptr %30, i64 112
  %38 = call noundef nonnull align 8 dereferenceable(24) ptr @_ZNSt6vectorIiSaIiEEaSERKS1_(ptr noundef nonnull align 8 dereferenceable(24) %37, ptr noundef nonnull align 8 dereferenceable(24) %36)
  %39 = getelementptr inbounds nuw i8, ptr %22, i64 136
  %40 = getelementptr inbounds nuw i8, ptr %30, i64 136
  %41 = call noundef nonnull align 8 dereferenceable(24) ptr @_ZNSt6vectorIiSaIiEEaSERKS1_(ptr noundef nonnull align 8 dereferenceable(24) %40, ptr noundef nonnull align 8 dereferenceable(24) %39)
  call void @llvm.lifetime.start.p0(i64 16, ptr nonnull %2) #25
  call void @_ZN4ncnn9ParamDictC1Ev(ptr noundef nonnull align 8 dereferenceable(16) %2)
  %42 = load ptr, ptr %30, align 8, !tbaa !20
  %43 = getelementptr inbounds nuw i8, ptr %42, i64 16
  %44 = load ptr, ptr %43, align 8
  %45 = invoke noundef i32 %44(ptr noundef nonnull align 8 dereferenceable(212) %30, ptr noundef nonnull align 8 dereferenceable(16) %2)
          to label %46 unwind label %59

46:                                               ; preds = %25
  %47 = getelementptr inbounds nuw i8, ptr %22, i64 216
  %48 = load ptr, ptr %47, align 8, !tbaa !76
  %49 = load float, ptr %48, align 4, !tbaa !86
  %50 = getelementptr inbounds nuw i8, ptr %30, i64 208
  store float %49, ptr %50, align 8, !tbaa !692
  %51 = load ptr, ptr %3, align 8, !tbaa !39
  %52 = load ptr, ptr %51, align 8, !tbaa !44
  %53 = getelementptr inbounds nuw ptr, ptr %52, i64 %.024
  store ptr %30, ptr %53, align 8, !tbaa !50
  %54 = load ptr, ptr %22, align 8, !tbaa !20
  %55 = getelementptr inbounds nuw i8, ptr %54, i64 8
  %56 = load ptr, ptr %55, align 8
  call void %56(ptr noundef nonnull align 8 dereferenceable(288) %22) #25
  call void @_ZN4ncnn9ParamDictD1Ev(ptr noundef nonnull align 8 dereferenceable(16) %2) #25
  call void @llvm.lifetime.end.p0(i64 16, ptr nonnull %2) #25
  br label %57

57:                                               ; preds = %46, %18, %.lr.ph
  %58 = add nuw i64 %.024, 1
  %exitcond.not = icmp eq i64 %58, %umax
  br i1 %exitcond.not, label %._crit_edge, label %.lr.ph, !llvm.loop !890

59:                                               ; preds = %25
  %60 = landingpad { ptr, i32 }
          cleanup
  call void @_ZN4ncnn9ParamDictD1Ev(ptr noundef nonnull align 8 dereferenceable(16) %2) #25
  call void @llvm.lifetime.end.p0(i64 16, ptr nonnull %2) #25
  resume { ptr, i32 } %60
}